; ModuleID = '11/900.c'
source_filename = "11/900.c"
target datalayout = "e-m:e-p270:32:32-p271:32:32-p272:64:64-i64:64-f80:128-n8:16:32:64-S128"
target triple = "x86_64-pc-linux-gnu"

@.str = private unnamed_addr constant [7 x i8] c"%d%d%d\00", align 1
@.str.1 = private unnamed_addr constant [3 x i8] c"%d\00", align 1

; Function Attrs: noinline nounwind uwtable
define dso_local void @main() #0 {
  %1 = alloca i32, align 4
  %2 = alloca i32, align 4
  %3 = alloca i32, align 4
  %4 = alloca i32, align 4
  %5 = alloca i32, align 4
  store i32 0, i32* %5, align 4
  %6 = call i32 (i8*, ...) @__isoc99_scanf(i8* getelementptr inbounds ([7 x i8], [7 x i8]* @.str, i64 0, i64 0), i32* %1, i32* %2, i32* %3)
  store i32 1, i32* %4, align 4
  br label %7

7:                                                ; preds = %77, %0
  %8 = load i32, i32* %4, align 4
  %9 = load i32, i32* %2, align 4
  %10 = icmp slt i32 %8, %9
  br i1 %10, label %11, label %80

11:                                               ; preds = %7
  %12 = load i32, i32* %4, align 4
  %13 = icmp eq i32 %12, 1
  br i1 %13, label %32, label %14

14:                                               ; preds = %11
  %15 = load i32, i32* %4, align 4
  %16 = icmp eq i32 %15, 3
  br i1 %16, label %32, label %17

17:                                               ; preds = %14
  %18 = load i32, i32* %4, align 4
  %19 = icmp eq i32 %18, 5
  br i1 %19, label %32, label %20

20:                                               ; preds = %17
  %21 = load i32, i32* %4, align 4
  %22 = icmp eq i32 %21, 7
  br i1 %22, label %32, label %23

23:                                               ; preds = %20
  %24 = load i32, i32* %4, align 4
  %25 = icmp eq i32 %24, 8
  br i1 %25, label %32, label %26

26:                                               ; preds = %23
  %27 = load i32, i32* %4, align 4
  %28 = icmp eq i32 %27, 10
  br i1 %28, label %32, label %29

29:                                               ; preds = %26
  %30 = load i32, i32* %4, align 4
  %31 = icmp eq i32 %30, 12
  br i1 %31, label %32, label %35

32:                                               ; preds = %29, %26, %23, %20, %17, %14, %11
  %33 = load i32, i32* %5, align 4
  %34 = add nsw i32 %33, 31
  store i32 %34, i32* %5, align 4
  br label %35

35:                                               ; preds = %32, %29
  %36 = load i32, i32* %4, align 4
  %37 = icmp eq i32 %36, 4
  br i1 %37, label %47, label %38

38:                                               ; preds = %35
  %39 = load i32, i32* %4, align 4
  %40 = icmp eq i32 %39, 6
  br i1 %40, label %47, label %41

41:                                               ; preds = %38
  %42 = load i32, i32* %4, align 4
  %43 = icmp eq i32 %42, 9
  br i1 %43, label %47, label %44

44:                                               ; preds = %41
  %45 = load i32, i32* %4, align 4
  %46 = icmp eq i32 %45, 11
  br i1 %46, label %47, label %50

47:                                               ; preds = %44, %41, %38, %35
  %48 = load i32, i32* %5, align 4
  %49 = add nsw i32 %48, 30
  store i32 %49, i32* %5, align 4
  br label %50

50:                                               ; preds = %47, %44
  %51 = load i32, i32* %4, align 4
  %52 = icmp eq i32 %51, 2
  br i1 %52, label %53, label %76

53:                                               ; preds = %50
  %54 = load i32, i32* %1, align 4
  %55 = srem i32 %54, 400
  %56 = icmp eq i32 %55, 0
  br i1 %56, label %57, label %60

57:                                               ; preds = %53
  %58 = load i32, i32* %5, align 4
  %59 = add nsw i32 %58, 29
  store i32 %59, i32* %5, align 4
  br label %75

60:                                               ; preds = %53
  %61 = load i32, i32* %1, align 4
  %62 = srem i32 %61, 4
  %63 = icmp eq i32 %62, 0
  br i1 %63, label %64, label %71

64:                                               ; preds = %60
  %65 = load i32, i32* %1, align 4
  %66 = srem i32 %65, 100
  %67 = icmp ne i32 %66, 0
  br i1 %67, label %68, label %71

68:                                               ; preds = %64
  %69 = load i32, i32* %5, align 4
  %70 = add nsw i32 %69, 29
  store i32 %70, i32* %5, align 4
  br label %74

71:                                               ; preds = %64, %60
  %72 = load i32, i32* %5, align 4
  %73 = add nsw i32 %72, 28
  store i32 %73, i32* %5, align 4
  br label %74

74:                                               ; preds = %71, %68
  br label %75

75:                                               ; preds = %74, %57
  br label %76

76:                                               ; preds = %75, %50
  br label %77

77:                                               ; preds = %76
  %78 = load i32, i32* %4, align 4
  %79 = add nsw i32 %78, 1
  store i32 %79, i32* %4, align 4
  br label %7

80:                                               ; preds = %7
  %81 = load i32, i32* %5, align 4
  %82 = load i32, i32* %3, align 4
  %83 = add nsw i32 %81, %82
  store i32 %83, i32* %5, align 4
  %84 = load i32, i32* %5, align 4
  %85 = call i32 (i8*, ...) @printf(i8* getelementptr inbounds ([3 x i8], [3 x i8]* @.str.1, i64 0, i64 0), i32 %84)
  ret void
}

declare dso_local i32 @__isoc99_scanf(i8*, ...) #1

declare dso_local i32 @printf(i8*, ...) #1


!llvm.module.flags = !{!0}
!llvm.ident = !{!1}

!0 = !{i32 1, !"wchar_size", i32 4}
!1 = !{!"clang version 10.0.0-4ubuntu1 "}
